; Function Attrs: mustprogress uwtable
define noundef ptr @_ZN32pxrInternal_v0_24__pxrReserved__26Ts_GetClosestKeyFrameAfterERKNS_13TsKeyFrameMapEd(ptr noundef nonnull align 8 dereferenceable(24) %0, double noundef %1) local_unnamed_addr #0 {
  %3 = load ptr, ptr %0, align 8
  %4 = getelementptr inbounds nuw i8, ptr %0, i64 8
  %5 = load ptr, ptr %4, align 8
  %6 = icmp eq ptr %3, %5
  br i1 %6, label %16, label %7

7:                                                ; preds = %2
  %8 = tail call ptr @_ZNK32pxrInternal_v0_24__pxrReserved__13TsKeyFrameMap11lower_boundEd(ptr noundef nonnull align 8 dereferenceable(24) %0, double noundef %1)
  %9 = load ptr, ptr %4, align 8
  %.not = icmp eq ptr %8, %9
  br i1 %.not, label %.critedge, label %10

10:                                               ; preds = %7
  %11 = getelementptr inbounds nuw i8, ptr %8, i64 8
  %12 = load double, ptr %11, align 8
  %13 = fcmp oeq double %12, %1
  br i1 %13, label %14, label %.critedge

14:                                               ; preds = %10
  %15 = getelementptr inbounds i8, ptr %8, i64 72
  br label %.critedge

.critedge:                                        ; preds = %7, %14, %10
  %.sroa.08.0 = phi ptr [ %15, %14 ], [ %8, %10 ], [ %8, %7 ]
  %.not13 = icmp eq ptr %.sroa.08.0, %9
  %spec.select = select i1 %.not13, ptr null, ptr %.sroa.08.0
  br label %16

16:                                               ; preds = %.critedge, %2
  %.0 = phi ptr [ null, %2 ], [ %spec.select, %.critedge ]
  ret ptr %.0
}